target datalayout = "e-m:e-p270:32:32-p271:32:32-p272:64:64-i64:64-i128:128-f80:128-n8:16:32:64-S128"
target triple = "x86_64-pc-linux-gnu"

%"class.std::__cxx11::basic_string" = type { %"struct.std::__cxx11::basic_string<char>::_Alloc_hider", i64, %union.anon }
%"struct.std::__cxx11::basic_string<char>::_Alloc_hider" = type { ptr }
%union.anon = type { i64, [8 x i8] }
%"struct.cmGeneratorTarget::Names" = type { %"class.std::__cxx11::basic_string", %"class.std::__cxx11::basic_string", %"class.std::__cxx11::basic_string", %"class.std::__cxx11::basic_string", %"class.std::__cxx11::basic_string", %"class.std::__cxx11::basic_string", %"class.std::__cxx11::basic_string", %"class.std::__cxx11::basic_string" }

@.str.13 = private unnamed_addr constant [31 x i8] c"${CMAKE_IMPORT_LIBRARY_SUFFIX}\00", align 1

; Function Attrs: mustprogress uwtable
define dso_local void @_ZN24cmInstallTargetGenerator18GetInstallFilenameEPK17cmGeneratorTargetRKNSt7__cxx1112basic_stringIcSt11char_traitsIcESaIcEEENS_8NameTypeE(ptr dead_on_unwind noalias writable sret(%"class.std::__cxx11::basic_string") align 8 %0, ptr noundef %1, ptr noundef nonnull align 8 dereferenceable(32) %2, i32 noundef %3) #4 align 2 personality ptr @__gxx_personality_v0 {
  %5 = alloca ptr, align 8
  %6 = alloca ptr, align 8
  %7 = alloca ptr, align 8
  %8 = alloca i32, align 4
  %9 = alloca i1, align 1
  %10 = alloca ptr, align 8
  %11 = alloca i32, align 4
  %12 = alloca %"struct.cmGeneratorTarget::Names", align 8
  %13 = alloca %"struct.cmGeneratorTarget::Names", align 8
  %14 = alloca ptr, align 8
  store ptr %0, ptr %5, align 8
  store ptr %1, ptr %6, align 8
  store ptr %2, ptr %7, align 8
  store i32 %3, ptr %8, align 4
  store i1 false, ptr %9, align 1
  call void @_ZNSt7__cxx1112basic_stringIcSt11char_traitsIcESaIcEEC1Ev(ptr noundef nonnull align 8 dereferenceable(32) %0) #3
  %15 = load ptr, ptr %6, align 8
  %16 = invoke noundef i32 @_ZNK17cmGeneratorTarget7GetTypeEv(ptr noundef nonnull align 8 dereferenceable(2728) %15)
          to label %17 unwind label %35

17:                                               ; preds = %4
  %18 = icmp eq i32 %16, 0
  br i1 %18, label %19, label %72

19:                                               ; preds = %17
  %20 = load ptr, ptr %6, align 8
  %21 = load ptr, ptr %7, align 8
  invoke void @_ZNK17cmGeneratorTarget18GetExecutableNamesERKNSt7__cxx1112basic_stringIcSt11char_traitsIcESaIcEEE(ptr dead_on_unwind writable sret(%"struct.cmGeneratorTarget::Names") align 8 %12, ptr noundef nonnull align 8 dereferenceable(2728) %20, ptr noundef nonnull align 8 dereferenceable(32) %21)
          to label %22 unwind label %35

22:                                               ; preds = %19
  %23 = load i32, ptr %8, align 4
  %24 = icmp eq i32 %23, 1
  br i1 %24, label %25, label %44

25:                                               ; preds = %22
  %26 = load ptr, ptr %6, align 8
  %27 = load ptr, ptr %7, align 8
  %28 = getelementptr inbounds %"struct.cmGeneratorTarget::Names", ptr %12, i32 0, i32 5
  %29 = invoke noundef zeroext i1 @_ZNK17cmGeneratorTarget16GetImplibGNUtoMSERKNSt7__cxx1112basic_stringIcSt11char_traitsIcESaIcEEES7_RS5_PKc(ptr noundef nonnull align 8 dereferenceable(2728) %26, ptr noundef nonnull align 8 dereferenceable(32) %27, ptr noundef nonnull align 8 dereferenceable(32) %28, ptr noundef nonnull align 8 dereferenceable(32) %0, ptr noundef @.str.13)
          to label %30 unwind label %39

30:                                               ; preds = %25
  br i1 %29, label %43, label %31

31:                                               ; preds = %30
  %32 = getelementptr inbounds %"struct.cmGeneratorTarget::Names", ptr %12, i32 0, i32 5
  %33 = invoke noundef nonnull align 8 dereferenceable(32) ptr @_ZNSt7__cxx1112basic_stringIcSt11char_traitsIcESaIcEEaSERKS4_(ptr noundef nonnull align 8 dereferenceable(32) %0, ptr noundef nonnull align 8 dereferenceable(32) %32)
          to label %34 unwind label %39

34:                                               ; preds = %31
  br label %43

35:                                               ; preds = %72, %19, %4
  %36 = landingpad { ptr, i32 }
          cleanup
  %37 = extractvalue { ptr, i32 } %36, 0
  store ptr %37, ptr %10, align 8
  %38 = extractvalue { ptr, i32 } %36, 1
  store i32 %38, ptr %11, align 4
  br label %129

39:                                               ; preds = %65, %61, %53, %47, %31, %25
  %40 = landingpad { ptr, i32 }
          cleanup
  %41 = extractvalue { ptr, i32 } %40, 0
  store ptr %41, ptr %10, align 8
  %42 = extractvalue { ptr, i32 } %40, 1
  store i32 %42, ptr %11, align 4
  call void @_ZN17cmGeneratorTarget5NamesD2Ev(ptr noundef nonnull align 8 dereferenceable(256) %12) #3
  br label %129

43:                                               ; preds = %34, %30
  br label %71

44:                                               ; preds = %22
  %45 = load i32, ptr %8, align 4
  %46 = icmp eq i32 %45, 4
  br i1 %46, label %47, label %58

47:                                               ; preds = %44
  %48 = load ptr, ptr %6, align 8
  %49 = load ptr, ptr %7, align 8
  %50 = getelementptr inbounds %"struct.cmGeneratorTarget::Names", ptr %12, i32 0, i32 4
  %51 = invoke noundef zeroext i1 @_ZNK17cmGeneratorTarget16GetImplibGNUtoMSERKNSt7__cxx1112basic_stringIcSt11char_traitsIcESaIcEEES7_RS5_PKc(ptr noundef nonnull align 8 dereferenceable(2728) %48, ptr noundef nonnull align 8 dereferenceable(32) %49, ptr noundef nonnull align 8 dereferenceable(32) %50, ptr noundef nonnull align 8 dereferenceable(32) %0, ptr noundef @.str.13)
          to label %52 unwind label %39

52:                                               ; preds = %47
  br i1 %51, label %57, label %53

53:                                               ; preds = %52
  %54 = getelementptr inbounds %"struct.cmGeneratorTarget::Names", ptr %12, i32 0, i32 4
  %55 = invoke noundef nonnull align 8 dereferenceable(32) ptr @_ZNSt7__cxx1112basic_stringIcSt11char_traitsIcESaIcEEaSERKS4_(ptr noundef nonnull align 8 dereferenceable(32) %0, ptr noundef nonnull align 8 dereferenceable(32) %54)
          to label %56 unwind label %39

56:                                               ; preds = %53
  br label %57

57:                                               ; preds = %56, %52
  br label %70

58:                                               ; preds = %44
  %59 = load i32, ptr %8, align 4
  %60 = icmp eq i32 %59, 3
  br i1 %60, label %61, label %65

61:                                               ; preds = %58
  %62 = getelementptr inbounds %"struct.cmGeneratorTarget::Names", ptr %12, i32 0, i32 2
  %63 = invoke noundef nonnull align 8 dereferenceable(32) ptr @_ZNSt7__cxx1112basic_stringIcSt11char_traitsIcESaIcEEaSERKS4_(ptr noundef nonnull align 8 dereferenceable(32) %0, ptr noundef nonnull align 8 dereferenceable(32) %62)
          to label %64 unwind label %39

64:                                               ; preds = %61
  br label %69

65:                                               ; preds = %58
  %66 = getelementptr inbounds %"struct.cmGeneratorTarget::Names", ptr %12, i32 0, i32 1
  %67 = invoke noundef nonnull align 8 dereferenceable(32) ptr @_ZNSt7__cxx1112basic_stringIcSt11char_traitsIcESaIcEEaSERKS4_(ptr noundef nonnull align 8 dereferenceable(32) %0, ptr noundef nonnull align 8 dereferenceable(32) %66)
          to label %68 unwind label %39

68:                                               ; preds = %65
  br label %69

69:                                               ; preds = %68, %64
  br label %70

70:                                               ; preds = %69, %57
  br label %71

71:                                               ; preds = %70, %43
  call void @_ZN17cmGeneratorTarget5NamesD2Ev(ptr noundef nonnull align 8 dereferenceable(256) %12) #3
  br label %125

72:                                               ; preds = %17
  %73 = load ptr, ptr %6, align 8
  %74 = load ptr, ptr %7, align 8
  invoke void @_ZNK17cmGeneratorTarget15GetLibraryNamesERKNSt7__cxx1112basic_stringIcSt11char_traitsIcESaIcEEE(ptr dead_on_unwind writable sret(%"struct.cmGeneratorTarget::Names") align 8 %13, ptr noundef nonnull align 8 dereferenceable(2728) %73, ptr noundef nonnull align 8 dereferenceable(32) %74)
          to label %75 unwind label %35

75:                                               ; preds = %72
  %76 = load i32, ptr %8, align 4
  %77 = icmp eq i32 %76, 1
  br i1 %77, label %81, label %78

78:                                               ; preds = %75
  %79 = load i32, ptr %8, align 4
  %80 = icmp eq i32 %79, 4
  br i1 %80, label %81, label %104

81:                                               ; preds = %78, %75
  %82 = load i32, ptr %8, align 4
  %83 = icmp eq i32 %82, 1
  br i1 %83, label %84, label %86

84:                                               ; preds = %81
  %85 = getelementptr inbounds %"struct.cmGeneratorTarget::Names", ptr %13, i32 0, i32 5
  br label %88

86:                                               ; preds = %81
  %87 = getelementptr inbounds %"struct.cmGeneratorTarget::Names", ptr %13, i32 0, i32 4
  br label %88

88:                                               ; preds = %86, %84
  %89 = phi ptr [ %85, %84 ], [ %87, %86 ]
  store ptr %89, ptr %14, align 8
  %90 = load ptr, ptr %6, align 8
  %91 = load ptr, ptr %7, align 8
  %92 = load ptr, ptr %14, align 8
  %93 = invoke noundef zeroext i1 @_ZNK17cmGeneratorTarget16GetImplibGNUtoMSERKNSt7__cxx1112basic_stringIcSt11char_traitsIcESaIcEEES7_RS5_PKc(ptr noundef nonnull align 8 dereferenceable(2728) %90, ptr noundef nonnull align 8 dereferenceable(32) %91, ptr noundef nonnull align 8 dereferenceable(32) %92, ptr noundef nonnull align 8 dereferenceable(32) %0, ptr noundef @.str.13)
          to label %94 unwind label %99

94:                                               ; preds = %88
  br i1 %93, label %103, label %95

95:                                               ; preds = %94
  %96 = load ptr, ptr %14, align 8
  %97 = invoke noundef nonnull align 8 dereferenceable(32) ptr @_ZNSt7__cxx1112basic_stringIcSt11char_traitsIcESaIcEEaSERKS4_(ptr noundef nonnull align 8 dereferenceable(32) %0, ptr noundef nonnull align 8 dereferenceable(32) %96)
          to label %98 unwind label %99

98:                                               ; preds = %95
  br label %103

99:                                               ; preds = %118, %114, %107, %95, %88
  %100 = landingpad { ptr, i32 }
          cleanup
  %101 = extractvalue { ptr, i32 } %100, 0
  store ptr %101, ptr %10, align 8
  %102 = extractvalue { ptr, i32 } %100, 1
  store i32 %102, ptr %11, align 4
  call void @_ZN17cmGeneratorTarget5NamesD2Ev(ptr noundef nonnull align 8 dereferenceable(256) %13) #3
  br label %129

103:                                              ; preds = %98, %94
  br label %124

104:                                              ; preds = %78
  %105 = load i32, ptr %8, align 4
  %106 = icmp eq i32 %105, 2
  br i1 %106, label %107, label %111

107:                                              ; preds = %104
  %108 = getelementptr inbounds %"struct.cmGeneratorTarget::Names", ptr %13, i32 0, i32 7
  %109 = invoke noundef nonnull align 8 dereferenceable(32) ptr @_ZNSt7__cxx1112basic_stringIcSt11char_traitsIcESaIcEEaSERKS4_(ptr noundef nonnull align 8 dereferenceable(32) %0, ptr noundef nonnull align 8 dereferenceable(32) %108)
          to label %110 unwind label %99

110:                                              ; preds = %107
  br label %123

111:                                              ; preds = %104
  %112 = load i32, ptr %8, align 4
  %113 = icmp eq i32 %112, 3
  br i1 %113, label %114, label %118

114:                                              ; preds = %111
  %115 = getelementptr inbounds %"struct.cmGeneratorTarget::Names", ptr %13, i32 0, i32 2
  %116 = invoke noundef nonnull align 8 dereferenceable(32) ptr @_ZNSt7__cxx1112basic_stringIcSt11char_traitsIcESaIcEEaSERKS4_(ptr noundef nonnull align 8 dereferenceable(32) %0, ptr noundef nonnull align 8 dereferenceable(32) %115)
          to label %117 unwind label %99

117:                                              ; preds = %114
  br label %122

118:                                              ; preds = %111
  %119 = getelementptr inbounds %"struct.cmGeneratorTarget::Names", ptr %13, i32 0, i32 1
  %120 = invoke noundef nonnull align 8 dereferenceable(32) ptr @_ZNSt7__cxx1112basic_stringIcSt11char_traitsIcESaIcEEaSERKS4_(ptr noundef nonnull align 8 dereferenceable(32) %0, ptr noundef nonnull align 8 dereferenceable(32) %119)
          to label %121 unwind label %99

121:                                              ; preds = %118
  br label %122

122:                                              ; preds = %121, %117
  br label %123

123:                                              ; preds = %122, %110
  br label %124

124:                                              ; preds = %123, %103
  call void @_ZN17cmGeneratorTarget5NamesD2Ev(ptr noundef nonnull align 8 dereferenceable(256) %13) #3
  br label %125

125:                                              ; preds = %124, %71
  store i1 true, ptr %9, align 1
  %126 = load i1, ptr %9, align 1
  br i1 %126, label %128, label %127

127:                                              ; preds = %125
  call void @_ZNSt7__cxx1112basic_stringIcSt11char_traitsIcESaIcEED1Ev(ptr noundef nonnull align 8 dereferenceable(32) %0) #3
  br label %128

128:                                              ; preds = %127, %125
  ret void

129:                                              ; preds = %99, %39, %35
  call void @_ZNSt7__cxx1112basic_stringIcSt11char_traitsIcESaIcEED1Ev(ptr noundef nonnull align 8 dereferenceable(32) %0) #3
  br label %130

130:                                              ; preds = %129
  %131 = load ptr, ptr %10, align 8
  %132 = load i32, ptr %11, align 4
  %133 = insertvalue { ptr, i32 } poison, ptr %131, 0
  %134 = insertvalue { ptr, i32 } %133, i32 %132, 1
  resume { ptr, i32 } %134
}