; Function Attrs: mustprogress uwtable
define dso_local void @_ZN24cmInstallTargetGenerator18GetInstallFilenameEPK17cmGeneratorTargetRKNSt7__cxx1112basic_stringIcSt11char_traitsIcESaIcEEENS_8NameTypeE(ptr dead_on_unwind noalias nonnull writable sret(%"class.std::__cxx11::basic_string") align 8 %0, ptr noundef %1, ptr noundef nonnull align 8 dereferenceable(32) %2, i32 noundef %3) local_unnamed_addr #3 align 2 personality ptr @__gxx_personality_v0 {
  %5 = alloca %"struct.cmGeneratorTarget::Names", align 8
  %6 = alloca %"struct.cmGeneratorTarget::Names", align 8
  tail call void @_ZNSt7__cxx1112basic_stringIcSt11char_traitsIcESaIcEEC1Ev(ptr noundef nonnull align 8 dereferenceable(32) %0) #19
  %.sink43.sroa.gep = getelementptr inbounds i8, ptr %5, i64 224
  %.sink43.sroa.gep45 = getelementptr inbounds i8, ptr %5, i64 224
  %.sink43.sroa.gep46 = getelementptr inbounds i8, ptr %5, i64 224
  %.sink43.sroa.gep47 = getelementptr inbounds i8, ptr %6, i64 224
  %.sink43.sroa.gep48 = getelementptr inbounds i8, ptr %6, i64 224
  %.sink43.sroa.gep50 = getelementptr inbounds i8, ptr %5, i64 192
  %.sink43.sroa.gep51 = getelementptr inbounds i8, ptr %5, i64 192
  %.sink43.sroa.gep52 = getelementptr inbounds i8, ptr %5, i64 192
  %.sink43.sroa.gep53 = getelementptr inbounds i8, ptr %6, i64 192
  %.sink43.sroa.gep54 = getelementptr inbounds i8, ptr %6, i64 192
  %.sink43.sroa.gep56 = getelementptr inbounds i8, ptr %5, i64 160
  %.sink43.sroa.gep57 = getelementptr inbounds i8, ptr %5, i64 160
  %.sink43.sroa.gep58 = getelementptr inbounds i8, ptr %5, i64 160
  %.sink43.sroa.gep59 = getelementptr inbounds i8, ptr %6, i64 160
  %.sink43.sroa.gep60 = getelementptr inbounds i8, ptr %6, i64 160
  %.sink43.sroa.gep62 = getelementptr inbounds i8, ptr %5, i64 128
  %.sink43.sroa.gep63 = getelementptr inbounds i8, ptr %5, i64 128
  %.sink43.sroa.gep64 = getelementptr inbounds i8, ptr %5, i64 128
  %.sink43.sroa.gep65 = getelementptr inbounds i8, ptr %6, i64 128
  %.sink43.sroa.gep66 = getelementptr inbounds i8, ptr %6, i64 128
  %.sink43.sroa.gep68 = getelementptr inbounds i8, ptr %5, i64 96
  %.sink43.sroa.gep69 = getelementptr inbounds i8, ptr %5, i64 96
  %.sink43.sroa.gep70 = getelementptr inbounds i8, ptr %5, i64 96
  %.sink43.sroa.gep71 = getelementptr inbounds i8, ptr %6, i64 96
  %.sink43.sroa.gep72 = getelementptr inbounds i8, ptr %6, i64 96
  %.sink43.sroa.gep74 = getelementptr inbounds i8, ptr %5, i64 64
  %.sink43.sroa.gep75 = getelementptr inbounds i8, ptr %5, i64 64
  %.sink43.sroa.gep76 = getelementptr inbounds i8, ptr %5, i64 64
  %.sink43.sroa.gep77 = getelementptr inbounds i8, ptr %6, i64 64
  %.sink43.sroa.gep78 = getelementptr inbounds i8, ptr %6, i64 64
  %.sink43.sroa.gep80 = getelementptr inbounds i8, ptr %5, i64 32
  %.sink43.sroa.gep81 = getelementptr inbounds i8, ptr %5, i64 32
  %.sink43.sroa.gep82 = getelementptr inbounds i8, ptr %5, i64 32
  %.sink43.sroa.gep83 = getelementptr inbounds i8, ptr %6, i64 32
  %.sink43.sroa.gep84 = getelementptr inbounds i8, ptr %6, i64 32
  %7 = invoke noundef i32 @_ZNK17cmGeneratorTarget7GetTypeEv(ptr noundef nonnull align 8 dereferenceable(2728) %1)
          to label %8 unwind label %16

8:                                                ; preds = %4
  %9 = icmp eq i32 %7, 0
  br i1 %9, label %10, label %30

10:                                               ; preds = %8
  invoke void @_ZNK17cmGeneratorTarget18GetExecutableNamesERKNSt7__cxx1112basic_stringIcSt11char_traitsIcESaIcEEE(ptr dead_on_unwind nonnull writable sret(%"struct.cmGeneratorTarget::Names") align 8 %5, ptr noundef nonnull align 8 dereferenceable(2728) %1, ptr noundef nonnull align 8 dereferenceable(32) %2)
          to label %11 unwind label %16

11:                                               ; preds = %10
  switch i32 %3, label %26 [
    i32 1, label %12
    i32 4, label %20
    i32 3, label %24
  ]

12:                                               ; preds = %11
  %13 = getelementptr inbounds i8, ptr %5, i64 160
  %14 = invoke noundef zeroext i1 @_ZNK17cmGeneratorTarget16GetImplibGNUtoMSERKNSt7__cxx1112basic_stringIcSt11char_traitsIcESaIcEEES7_RS5_PKc(ptr noundef nonnull align 8 dereferenceable(2728) %1, ptr noundef nonnull align 8 dereferenceable(32) %2, ptr noundef nonnull align 8 dereferenceable(32) %13, ptr noundef nonnull align 8 dereferenceable(32) %0, ptr noundef nonnull @.str.13)
          to label %15 unwind label %18

15:                                               ; preds = %12
  br i1 %14, label %46, label %.invoke

16:                                               ; preds = %30, %10, %4
  %17 = landingpad { ptr, i32 }
          cleanup
  br label %47

18:                                               ; preds = %.invoke, %20, %12
  %19 = landingpad { ptr, i32 }
          cleanup
  call void @_ZN17cmGeneratorTarget5NamesD2Ev(ptr noundef nonnull align 8 dereferenceable(256) %5) #19
  br label %47

20:                                               ; preds = %11
  %21 = getelementptr inbounds i8, ptr %5, i64 128
  %22 = invoke noundef zeroext i1 @_ZNK17cmGeneratorTarget16GetImplibGNUtoMSERKNSt7__cxx1112basic_stringIcSt11char_traitsIcESaIcEEES7_RS5_PKc(ptr noundef nonnull align 8 dereferenceable(2728) %1, ptr noundef nonnull align 8 dereferenceable(32) %2, ptr noundef nonnull align 8 dereferenceable(32) %21, ptr noundef nonnull align 8 dereferenceable(32) %0, ptr noundef nonnull @.str.13)
          to label %23 unwind label %18

23:                                               ; preds = %20
  br i1 %22, label %46, label %.invoke

24:                                               ; preds = %11
  %25 = getelementptr inbounds i8, ptr %5, i64 64
  br label %.invoke

26:                                               ; preds = %11
  %27 = getelementptr inbounds i8, ptr %5, i64 32
  br label %.invoke

.invoke:                                          ; preds = %15, %23, %24, %26
  %28 = phi ptr [ %27, %26 ], [ %25, %24 ], [ %21, %23 ], [ %13, %15 ]
  %29 = invoke noundef nonnull align 8 dereferenceable(32) ptr @_ZNSt7__cxx1112basic_stringIcSt11char_traitsIcESaIcEEaSERKS4_(ptr noundef nonnull align 8 dereferenceable(32) %0, ptr noundef nonnull align 8 dereferenceable(32) %28)
          to label %46 unwind label %18

30:                                               ; preds = %8
  invoke void @_ZNK17cmGeneratorTarget15GetLibraryNamesERKNSt7__cxx1112basic_stringIcSt11char_traitsIcESaIcEEE(ptr dead_on_unwind nonnull writable sret(%"struct.cmGeneratorTarget::Names") align 8 %6, ptr noundef nonnull align 8 dereferenceable(2728) %1, ptr noundef nonnull align 8 dereferenceable(32) %2)
          to label %31 unwind label %16

31:                                               ; preds = %30
  switch i32 %3, label %42 [
    i32 4, label %32
    i32 1, label %32
    i32 2, label %38
    i32 3, label %40
  ]

32:                                               ; preds = %31, %31
  %33 = icmp eq i32 %3, 1
  %.v.sroa.sel.v.sroa.sel.v.sroa.sel.v = select i1 %33, i64 160, i64 128
  %.v.sroa.sel.v.sroa.sel.v.sroa.sel = getelementptr inbounds i8, ptr %6, i64 %.v.sroa.sel.v.sroa.sel.v.sroa.sel.v
  %34 = invoke noundef zeroext i1 @_ZNK17cmGeneratorTarget16GetImplibGNUtoMSERKNSt7__cxx1112basic_stringIcSt11char_traitsIcESaIcEEES7_RS5_PKc(ptr noundef nonnull align 8 dereferenceable(2728) %1, ptr noundef nonnull align 8 dereferenceable(32) %2, ptr noundef nonnull align 8 dereferenceable(32) %.v.sroa.sel.v.sroa.sel.v.sroa.sel, ptr noundef nonnull align 8 dereferenceable(32) %0, ptr noundef nonnull @.str.13)
          to label %35 unwind label %36

35:                                               ; preds = %32
  br i1 %34, label %46, label %.invoke29

36:                                               ; preds = %.invoke29, %32
  %37 = landingpad { ptr, i32 }
          cleanup
  call void @_ZN17cmGeneratorTarget5NamesD2Ev(ptr noundef nonnull align 8 dereferenceable(256) %6) #19
  br label %47

38:                                               ; preds = %31
  %39 = getelementptr inbounds i8, ptr %6, i64 224
  br label %.invoke29

40:                                               ; preds = %31
  %41 = getelementptr inbounds i8, ptr %6, i64 64
  br label %.invoke29

42:                                               ; preds = %31
  %43 = getelementptr inbounds i8, ptr %6, i64 32
  br label %.invoke29

.invoke29:                                        ; preds = %35, %38, %40, %42
  %44 = phi ptr [ %43, %42 ], [ %41, %40 ], [ %39, %38 ], [ %.v.sroa.sel.v.sroa.sel.v.sroa.sel, %35 ]
  %45 = invoke noundef nonnull align 8 dereferenceable(32) ptr @_ZNSt7__cxx1112basic_stringIcSt11char_traitsIcESaIcEEaSERKS4_(ptr noundef nonnull align 8 dereferenceable(32) %0, ptr noundef nonnull align 8 dereferenceable(32) %44)
          to label %46 unwind label %36

46:                                               ; preds = %35, %.invoke29, %15, %23, %.invoke
  %.sink43.sroa.phi = phi ptr [ %.sink43.sroa.gep, %.invoke ], [ %.sink43.sroa.gep45, %23 ], [ %.sink43.sroa.gep46, %15 ], [ %.sink43.sroa.gep47, %.invoke29 ], [ %.sink43.sroa.gep48, %35 ]
  %.sink43.sroa.phi49 = phi ptr [ %.sink43.sroa.gep50, %.invoke ], [ %.sink43.sroa.gep51, %23 ], [ %.sink43.sroa.gep52, %15 ], [ %.sink43.sroa.gep53, %.invoke29 ], [ %.sink43.sroa.gep54, %35 ]
  %.sink43.sroa.phi55 = phi ptr [ %.sink43.sroa.gep56, %.invoke ], [ %.sink43.sroa.gep57, %23 ], [ %.sink43.sroa.gep58, %15 ], [ %.sink43.sroa.gep59, %.invoke29 ], [ %.sink43.sroa.gep60, %35 ]
  %.sink43.sroa.phi61 = phi ptr [ %.sink43.sroa.gep62, %.invoke ], [ %.sink43.sroa.gep63, %23 ], [ %.sink43.sroa.gep64, %15 ], [ %.sink43.sroa.gep65, %.invoke29 ], [ %.sink43.sroa.gep66, %35 ]
  %.sink43.sroa.phi67 = phi ptr [ %.sink43.sroa.gep68, %.invoke ], [ %.sink43.sroa.gep69, %23 ], [ %.sink43.sroa.gep70, %15 ], [ %.sink43.sroa.gep71, %.invoke29 ], [ %.sink43.sroa.gep72, %35 ]
  %.sink43.sroa.phi73 = phi ptr [ %.sink43.sroa.gep74, %.invoke ], [ %.sink43.sroa.gep75, %23 ], [ %.sink43.sroa.gep76, %15 ], [ %.sink43.sroa.gep77, %.invoke29 ], [ %.sink43.sroa.gep78, %35 ]
  %.sink43.sroa.phi79 = phi ptr [ %.sink43.sroa.gep80, %.invoke ], [ %.sink43.sroa.gep81, %23 ], [ %.sink43.sroa.gep82, %15 ], [ %.sink43.sroa.gep83, %.invoke29 ], [ %.sink43.sroa.gep84, %35 ]
  %.sink43 = phi ptr [ %5, %.invoke ], [ %5, %23 ], [ %5, %15 ], [ %6, %.invoke29 ], [ %6, %35 ]
  call void @_ZNSt7__cxx1112basic_stringIcSt11char_traitsIcESaIcEED1Ev(ptr noundef nonnull align 8 dereferenceable(32) %.sink43.sroa.phi) #19
  call void @_ZNSt7__cxx1112basic_stringIcSt11char_traitsIcESaIcEED1Ev(ptr noundef nonnull align 8 dereferenceable(32) %.sink43.sroa.phi49) #19
  call void @_ZNSt7__cxx1112basic_stringIcSt11char_traitsIcESaIcEED1Ev(ptr noundef nonnull align 8 dereferenceable(32) %.sink43.sroa.phi55) #19
  call void @_ZNSt7__cxx1112basic_stringIcSt11char_traitsIcESaIcEED1Ev(ptr noundef nonnull align 8 dereferenceable(32) %.sink43.sroa.phi61) #19
  call void @_ZNSt7__cxx1112basic_stringIcSt11char_traitsIcESaIcEED1Ev(ptr noundef nonnull align 8 dereferenceable(32) %.sink43.sroa.phi67) #19
  call void @_ZNSt7__cxx1112basic_stringIcSt11char_traitsIcESaIcEED1Ev(ptr noundef nonnull align 8 dereferenceable(32) %.sink43.sroa.phi73) #19
  call void @_ZNSt7__cxx1112basic_stringIcSt11char_traitsIcESaIcEED1Ev(ptr noundef nonnull align 8 dereferenceable(32) %.sink43.sroa.phi79) #19
  call void @_ZNSt7__cxx1112basic_stringIcSt11char_traitsIcESaIcEED1Ev(ptr noundef nonnull align 8 dereferenceable(32) %.sink43) #19
  ret void

47:                                               ; preds = %36, %18, %16
  %.pn = phi { ptr, i32 } [ %19, %18 ], [ %17, %16 ], [ %37, %36 ]
  call void @_ZNSt7__cxx1112basic_stringIcSt11char_traitsIcESaIcEED1Ev(ptr noundef nonnull align 8 dereferenceable(32) %0) #19
  resume { ptr, i32 } %.pn
}